target datalayout = "e-m:e-p270:32:32-p271:32:32-p272:64:64-i64:64-i128:128-f80:128-n8:16:32:64-S128"
target triple = "x86_64-pc-linux-gnu"

%struct.Gia_Man_t_ = type { ptr, ptr, i32, i32, i32, i32, ptr, ptr, i32, i32, i32, ptr, ptr, %struct.Vec_Int_t_, %struct.Vec_Int_t_, i32, i32, i32, %struct.Vec_Int_t_, ptr, ptr, ptr, i32, i32, i32, i32, ptr, ptr, ptr, ptr, ptr, i32, i32, ptr, i32, ptr, ptr, ptr, ptr, ptr, ptr, ptr, ptr, ptr, ptr, ptr, ptr, ptr, ptr, ptr, ptr, ptr, ptr, %struct.Vec_Int_t_, %struct.Vec_Int_t_, ptr, ptr, ptr, ptr, ptr, ptr, ptr, ptr, ptr, ptr, ptr, ptr, ptr, ptr, ptr, ptr, ptr, ptr, ptr, ptr, ptr, i32, float, float, ptr, ptr, i32, ptr, ptr, ptr, ptr, ptr, ptr, ptr, ptr, ptr, ptr, ptr, ptr, ptr, ptr, ptr, i64, i64, ptr, ptr, i32, i32, i32, i32, i32, i32, i32, i32, i32, i32, i32, i32, ptr, ptr, ptr, ptr, ptr, ptr, ptr, ptr, i32, i32, i32, ptr, i32, i32, ptr, ptr, ptr, ptr, ptr, ptr, i32, i32, ptr, %struct.Vec_Int_t_, %struct.Vec_Int_t_, %struct.Vec_Int_t_, ptr, ptr, ptr, i32, i32, i32, i32, ptr, ptr, ptr, ptr, ptr }
%struct.Vec_Int_t_ = type { i32, i32, ptr }
%struct.Gia_Obj_t_ = type <{ i64, i32 }>

@.str = private unnamed_addr constant [37 x i8] c"MFFC %d has %d nodes and %d leaves:\0A\00", align 1
@.str.1 = private unnamed_addr constant [12 x i8] c"Node %2d : \00", align 1
@.str.2 = private unnamed_addr constant [12 x i8] c"Leaf %2d : \00", align 1
@.str.3 = private unnamed_addr constant [2 x i8] c"\0A\00", align 1

; Function Attrs: inlinehint nounwind uwtable
define internal ptr @Gia_ManObj(ptr noundef %0, i32 noundef %1) #4 {
  %3 = alloca ptr, align 8
  %4 = alloca i32, align 4
  store ptr %0, ptr %3, align 8, !tbaa !3
  store i32 %1, ptr %4, align 4, !tbaa !35
  %5 = load ptr, ptr %3, align 8, !tbaa !3
  %6 = getelementptr inbounds nuw %struct.Gia_Man_t_, ptr %5, i32 0, i32 6
  %7 = load ptr, ptr %6, align 8, !tbaa !45
  %8 = load i32, ptr %4, align 4, !tbaa !35
  %9 = sext i32 %8 to i64
  %10 = getelementptr inbounds %struct.Gia_Obj_t_, ptr %7, i64 %9
  ret ptr %10
}

; Function Attrs: inlinehint nounwind uwtable
define internal i32 @Vec_IntEntry(ptr noundef %0, i32 noundef %1) #4 {
  %3 = alloca ptr, align 8
  %4 = alloca i32, align 4
  store ptr %0, ptr %3, align 8, !tbaa !46
  store i32 %1, ptr %4, align 4, !tbaa !35
  %5 = load ptr, ptr %3, align 8, !tbaa !46
  %6 = getelementptr inbounds nuw %struct.Vec_Int_t_, ptr %5, i32 0, i32 2
  %7 = load ptr, ptr %6, align 8, !tbaa !53
  %8 = load i32, ptr %4, align 4, !tbaa !35
  %9 = sext i32 %8 to i64
  %10 = getelementptr inbounds i32, ptr %7, i64 %9
  %11 = load i32, ptr %10, align 4, !tbaa !35
  ret i32 %11
}

; Function Attrs: inlinehint nounwind uwtable
define internal i32 @Vec_IntSize(ptr noundef %0) #4 {
  %2 = alloca ptr, align 8
  store ptr %0, ptr %2, align 8, !tbaa !46
  %3 = load ptr, ptr %2, align 8, !tbaa !46
  %4 = getelementptr inbounds nuw %struct.Vec_Int_t_, ptr %3, i32 0, i32 1
  %5 = load i32, ptr %4, align 4, !tbaa !47
  ret i32 %5
}

; Function Attrs: nounwind uwtable
define void @Gia_ManTisPrintMffc(ptr noundef %0, i32 noundef %1, ptr noundef %2, ptr noundef %3) #0 {
  %5 = alloca ptr, align 8
  %6 = alloca i32, align 4
  %7 = alloca ptr, align 8
  %8 = alloca ptr, align 8
  %9 = alloca ptr, align 8
  %10 = alloca i32, align 4
  store ptr %0, ptr %5, align 8, !tbaa !3
  store i32 %1, ptr %6, align 4, !tbaa !35
  store ptr %2, ptr %7, align 8, !tbaa !46
  store ptr %3, ptr %8, align 8, !tbaa !46
  call void @llvm.lifetime.start.p0(i64 8, ptr %9) #11
  call void @llvm.lifetime.start.p0(i64 4, ptr %10) #11
  %11 = load i32, ptr %6, align 4, !tbaa !35
  %12 = load ptr, ptr %7, align 8, !tbaa !46
  %13 = call i32 @Vec_IntSize(ptr noundef %12)
  %14 = load ptr, ptr %8, align 8, !tbaa !46
  %15 = call i32 @Vec_IntSize(ptr noundef %14)
  %16 = call i32 (ptr, ...) @printf(ptr noundef @.str, i32 noundef %11, i32 noundef %13, i32 noundef %15)
  %17 = load ptr, ptr %7, align 8, !tbaa !46
  %18 = call i32 @Vec_IntSize(ptr noundef %17)
  %19 = sub nsw i32 %18, 1
  store i32 %19, ptr %10, align 4, !tbaa !35
  br label %20

20:                                               ; preds = %41, %4
  %21 = load i32, ptr %10, align 4, !tbaa !35
  %22 = icmp sge i32 %21, 0
  br i1 %22, label %23, label %30

23:                                               ; preds = %20
  %24 = load ptr, ptr %5, align 8, !tbaa !3
  %25 = load ptr, ptr %7, align 8, !tbaa !46
  %26 = load i32, ptr %10, align 4, !tbaa !35
  %27 = call i32 @Vec_IntEntry(ptr noundef %25, i32 noundef %26)
  %28 = call ptr @Gia_ManObj(ptr noundef %24, i32 noundef %27)
  store ptr %28, ptr %9, align 8, !tbaa !37
  %29 = icmp ne ptr %28, null
  br label %30

30:                                               ; preds = %23, %20
  %31 = phi i1 [ false, %20 ], [ %29, %23 ]
  br i1 %31, label %32, label %44

32:                                               ; preds = %30
  %33 = load ptr, ptr %7, align 8, !tbaa !46
  %34 = call i32 @Vec_IntSize(ptr noundef %33)
  %35 = sub nsw i32 %34, 1
  %36 = load i32, ptr %10, align 4, !tbaa !35
  %37 = sub nsw i32 %35, %36
  %38 = call i32 (ptr, ...) @printf(ptr noundef @.str.1, i32 noundef %37)
  %39 = load ptr, ptr %5, align 8, !tbaa !3
  %40 = load ptr, ptr %9, align 8, !tbaa !37
  call void @Gia_ObjPrint(ptr noundef %39, ptr noundef %40)
  br label %41

41:                                               ; preds = %32
  %42 = load i32, ptr %10, align 4, !tbaa !35
  %43 = add nsw i32 %42, -1
  store i32 %43, ptr %10, align 4, !tbaa !35
  br label %20, !llvm.loop !54

44:                                               ; preds = %30
  store i32 0, ptr %10, align 4, !tbaa !35
  br label %45

45:                                               ; preds = %64, %44
  %46 = load i32, ptr %10, align 4, !tbaa !35
  %47 = load ptr, ptr %8, align 8, !tbaa !46
  %48 = call i32 @Vec_IntSize(ptr noundef %47)
  %49 = icmp slt i32 %46, %48
  br i1 %49, label %50, label %57

50:                                               ; preds = %45
  %51 = load ptr, ptr %5, align 8, !tbaa !3
  %52 = load ptr, ptr %8, align 8, !tbaa !46
  %53 = load i32, ptr %10, align 4, !tbaa !35
  %54 = call i32 @Vec_IntEntry(ptr noundef %52, i32 noundef %53)
  %55 = call ptr @Gia_ManObj(ptr noundef %51, i32 noundef %54)
  store ptr %55, ptr %9, align 8, !tbaa !37
  %56 = icmp ne ptr %55, null
  br label %57

57:                                               ; preds = %50, %45
  %58 = phi i1 [ false, %45 ], [ %56, %50 ]
  br i1 %58, label %59, label %67

59:                                               ; preds = %57
  %60 = load i32, ptr %10, align 4, !tbaa !35
  %61 = call i32 (ptr, ...) @printf(ptr noundef @.str.2, i32 noundef %60)
  %62 = load ptr, ptr %5, align 8, !tbaa !3
  %63 = load ptr, ptr %9, align 8, !tbaa !37
  call void @Gia_ObjPrint(ptr noundef %62, ptr noundef %63)
  br label %64

64:                                               ; preds = %59
  %65 = load i32, ptr %10, align 4, !tbaa !35
  %66 = add nsw i32 %65, 1
  store i32 %66, ptr %10, align 4, !tbaa !35
  br label %45, !llvm.loop !55

67:                                               ; preds = %57
  %68 = call i32 (ptr, ...) @printf(ptr noundef @.str.3)
  call void @llvm.lifetime.end.p0(i64 4, ptr %10) #11
  call void @llvm.lifetime.end.p0(i64 8, ptr %9) #11
  ret void
}