; Function Attrs: nounwind uwtable
define void @Gia_ManTisPrintMffc(ptr noundef %0, i32 noundef %1, ptr noundef readonly captures(none) %2, ptr noundef readonly captures(none) %3) local_unnamed_addr #0 {
  %5 = getelementptr i8, ptr %2, i64 4
  %.val29 = load i32, ptr %5, align 4, !tbaa !36
  %6 = getelementptr i8, ptr %3, i64 4
  %.val28 = load i32, ptr %6, align 4, !tbaa !36
  %7 = tail call i32 (ptr, ...) @printf(ptr noundef nonnull dereferenceable(1) @.str, i32 noundef %1, i32 noundef %.val29, i32 noundef %.val28)
  %.val27 = load i32, ptr %5, align 4, !tbaa !36
  %8 = getelementptr i8, ptr %0, i64 32
  %9 = icmp sgt i32 %.val27, 0
  br i1 %9, label %.lr.ph, label %.critedge

.lr.ph:                                           ; preds = %4
  %10 = getelementptr i8, ptr %2, i64 8
  %11 = zext nneg i32 %.val27 to i64
  br label %12

12:                                               ; preds = %.lr.ph, %13
  %indvars.iv = phi i64 [ %11, %.lr.ph ], [ %indvars.iv.next, %13 ]
  %.val33 = load ptr, ptr %8, align 8, !tbaa !32
  %.not = icmp eq ptr %.val33, null
  br i1 %.not, label %.critedge, label %13

13:                                               ; preds = %12
  %indvars.iv.next = add nsw i64 %indvars.iv, -1
  %.val30 = load ptr, ptr %10, align 8, !tbaa !37
  %14 = getelementptr inbounds nuw i32, ptr %.val30, i64 %indvars.iv.next
  %15 = load i32, ptr %14, align 4, !tbaa !38
  %16 = sext i32 %15 to i64
  %17 = getelementptr inbounds %struct.Gia_Obj_t_, ptr %.val33, i64 %16
  %.val26 = load i32, ptr %5, align 4, !tbaa !36
  %18 = trunc nuw nsw i64 %indvars.iv to i32
  %19 = sub i32 %.val26, %18
  %20 = tail call i32 (ptr, ...) @printf(ptr noundef nonnull dereferenceable(1) @.str.1, i32 noundef %19)
  tail call void @Gia_ObjPrint(ptr noundef nonnull %0, ptr noundef nonnull %17) #15
  %21 = icmp sgt i64 %indvars.iv, 1
  br i1 %21, label %12, label %.critedge, !llvm.loop !51

.critedge:                                        ; preds = %12, %13, %4
  %.val38 = load i32, ptr %6, align 4, !tbaa !36
  %22 = icmp sgt i32 %.val38, 0
  br i1 %22, label %.lr.ph40, label %.critedge2

.lr.ph40:                                         ; preds = %.critedge
  %23 = getelementptr i8, ptr %3, i64 8
  br label %24

24:                                               ; preds = %.lr.ph40, %25
  %indvars.iv43 = phi i64 [ 0, %.lr.ph40 ], [ %indvars.iv.next44, %25 ]
  %.val32 = load ptr, ptr %8, align 8, !tbaa !32
  %.not25 = icmp eq ptr %.val32, null
  br i1 %.not25, label %.critedge2, label %25

25:                                               ; preds = %24
  %.val31 = load ptr, ptr %23, align 8, !tbaa !37
  %26 = getelementptr inbounds nuw i32, ptr %.val31, i64 %indvars.iv43
  %27 = load i32, ptr %26, align 4, !tbaa !38
  %28 = sext i32 %27 to i64
  %29 = getelementptr inbounds %struct.Gia_Obj_t_, ptr %.val32, i64 %28
  %30 = trunc nuw nsw i64 %indvars.iv43 to i32
  %31 = tail call i32 (ptr, ...) @printf(ptr noundef nonnull dereferenceable(1) @.str.2, i32 noundef %30)
  tail call void @Gia_ObjPrint(ptr noundef nonnull %0, ptr noundef nonnull %29) #15
  %indvars.iv.next44 = add nuw nsw i64 %indvars.iv43, 1
  %.val = load i32, ptr %6, align 4, !tbaa !36
  %32 = sext i32 %.val to i64
  %33 = icmp slt i64 %indvars.iv.next44, %32
  br i1 %33, label %24, label %.critedge2, !llvm.loop !52

.critedge2:                                       ; preds = %24, %25, %.critedge
  %putchar = tail call i32 @putchar(i32 10)
  ret void
}